; Function Attrs: nounwind uwtable
define ptr @l_Lean_Json_opt___at___private_Lean_Data_Lsp_Capabilities_0__Lean_Lsp_toJsonClientCapabilities____x40_Lean_Data_Lsp_Capabilities___hyg_1307____spec__4(ptr noundef %0, ptr noundef %1) local_unnamed_addr #0 {
  %3 = ptrtoint ptr %1 to i64
  %4 = and i64 %3, 1
  %.not.i15 = icmp eq i64 %4, 0
  br i1 %.not.i15, label %8, label %5

5:                                                ; preds = %2
  %6 = lshr i64 %3, 1
  %7 = trunc i64 %6 to i32
  br label %lean_obj_tag.exit

8:                                                ; preds = %2
  %9 = getelementptr i8, ptr %1, i64 4
  %.val.i = load i32, ptr %9, align 4
  %10 = lshr i32 %.val.i, 24
  br label %lean_obj_tag.exit

lean_obj_tag.exit:                                ; preds = %5, %8
  %.0.i = phi i32 [ %7, %5 ], [ %10, %8 ]
  %11 = icmp eq i32 %.0.i, 0
  br i1 %11, label %12, label %22

12:                                               ; preds = %lean_obj_tag.exit
  %13 = ptrtoint ptr %0 to i64
  %14 = and i64 %13, 1
  %.not = icmp eq i64 %14, 0
  br i1 %.not, label %15, label %lean_dec.exit

15:                                               ; preds = %12
  %16 = load i32, ptr %0, align 4, !tbaa !8
  %17 = icmp sgt i32 %16, 1
  br i1 %17, label %18, label %20, !prof !13

18:                                               ; preds = %15
  %19 = add nsw i32 %16, -1
  store i32 %19, ptr %0, align 4, !tbaa !8
  br label %lean_dec.exit

20:                                               ; preds = %15
  %.not.i = icmp eq i32 %16, 0
  br i1 %.not.i, label %lean_dec.exit, label %21

21:                                               ; preds = %20
  tail call void @lean_dec_ref_cold(ptr noundef nonnull %0) #6
  br label %lean_dec.exit

22:                                               ; preds = %lean_obj_tag.exit
  %23 = getelementptr inbounds nuw i8, ptr %1, i64 8
  %24 = load ptr, ptr %23, align 8, !tbaa !4
  %25 = load ptr, ptr @l___private_Lean_Data_Lsp_Capabilities_0__Lean_Lsp_toJsonLeanClientCapabilities____x40_Lean_Data_Lsp_Capabilities___hyg_1168____closed__1, align 8, !tbaa !4
  %26 = tail call ptr @l_Lean_Json_opt___at___private_Lean_Data_Lsp_Diagnostics_0__Lean_Lsp_toJsonDiagnosticWith____x40_Lean_Data_Lsp_Diagnostics___hyg_1696____spec__2(ptr noundef %25, ptr noundef %24) #6
  tail call void @lean_inc_heartbeat() #6
  %27 = tail call noalias ptr @mi_malloc_small(i64 noundef 24) #6
  %28 = icmp eq ptr %27, null
  br i1 %28, label %29, label %l___private_Lean_Data_Lsp_Capabilities_0__Lean_Lsp_toJsonLeanClientCapabilities____x40_Lean_Data_Lsp_Capabilities___hyg_1168_.exit

29:                                               ; preds = %22
  tail call void @lean_internal_panic_out_of_memory() #7
  unreachable

l___private_Lean_Data_Lsp_Capabilities_0__Lean_Lsp_toJsonLeanClientCapabilities____x40_Lean_Data_Lsp_Capabilities___hyg_1168_.exit: ; preds = %22
  %30 = getelementptr inbounds nuw i8, ptr %27, i64 4
  store i32 1, ptr %27, align 4, !tbaa !8
  store i32 16908312, ptr %30, align 4
  %31 = getelementptr inbounds nuw i8, ptr %27, i64 8
  store ptr %26, ptr %31, align 8, !tbaa !4
  %32 = getelementptr inbounds nuw i8, ptr %27, i64 16
  store ptr inttoptr (i64 1 to ptr), ptr %32, align 8, !tbaa !4
  %33 = load ptr, ptr @l___private_Lean_Data_Lsp_Capabilities_0__Lean_Lsp_toJsonCompletionItemCapabilities____x40_Lean_Data_Lsp_Capabilities___hyg_20____closed__2, align 8, !tbaa !4
  %34 = tail call ptr @l_List_flatMapTR_go___at___private_Lean_Server_Rpc_Basic_0__Lean_Lsp_toJsonRpcRef____x40_Lean_Server_Rpc_Basic___hyg_173____spec__1(ptr noundef nonnull %27, ptr noundef %33) #6
  %35 = tail call ptr @l_Lean_Json_mkObj(ptr noundef %34) #6
  tail call void @lean_inc_heartbeat() #6
  %36 = tail call noalias ptr @mi_malloc_small(i64 noundef 24) #6
  %37 = icmp eq ptr %36, null
  br i1 %37, label %38, label %lean_alloc_ctor.exit

38:                                               ; preds = %l___private_Lean_Data_Lsp_Capabilities_0__Lean_Lsp_toJsonLeanClientCapabilities____x40_Lean_Data_Lsp_Capabilities___hyg_1168_.exit
  tail call void @lean_internal_panic_out_of_memory() #7
  unreachable

lean_alloc_ctor.exit:                             ; preds = %l___private_Lean_Data_Lsp_Capabilities_0__Lean_Lsp_toJsonLeanClientCapabilities____x40_Lean_Data_Lsp_Capabilities___hyg_1168_.exit
  %39 = getelementptr inbounds nuw i8, ptr %36, i64 4
  store i32 1, ptr %36, align 4, !tbaa !8
  store i32 131096, ptr %39, align 4
  %40 = getelementptr inbounds nuw i8, ptr %36, i64 8
  store ptr %0, ptr %40, align 8, !tbaa !4
  %41 = getelementptr inbounds nuw i8, ptr %36, i64 16
  store ptr %35, ptr %41, align 8, !tbaa !4
  tail call void @lean_inc_heartbeat() #6
  %42 = tail call noalias ptr @mi_malloc_small(i64 noundef 24) #6
  %43 = icmp eq ptr %42, null
  br i1 %43, label %44, label %lean_alloc_ctor.exit16

44:                                               ; preds = %lean_alloc_ctor.exit
  tail call void @lean_internal_panic_out_of_memory() #7
  unreachable

lean_alloc_ctor.exit16:                           ; preds = %lean_alloc_ctor.exit
  %45 = getelementptr inbounds nuw i8, ptr %42, i64 4
  store i32 1, ptr %42, align 4, !tbaa !8
  store i32 16908312, ptr %45, align 4
  %46 = getelementptr inbounds nuw i8, ptr %42, i64 8
  store ptr %36, ptr %46, align 8, !tbaa !4
  %47 = getelementptr inbounds nuw i8, ptr %42, i64 16
  store ptr inttoptr (i64 1 to ptr), ptr %47, align 8, !tbaa !4
  br label %lean_dec.exit

lean_dec.exit:                                    ; preds = %12, %18, %20, %21, %lean_alloc_ctor.exit16
  %.0 = phi ptr [ %42, %lean_alloc_ctor.exit16 ], [ inttoptr (i64 1 to ptr), %21 ], [ inttoptr (i64 1 to ptr), %20 ], [ inttoptr (i64 1 to ptr), %18 ], [ inttoptr (i64 1 to ptr), %12 ]
  ret ptr %.0
}